target datalayout = "e-m:e-p270:32:32-p271:32:32-p272:64:64-i64:64-i128:128-f80:128-n8:16:32:64-S128"
target triple = "x86_64-pc-linux-gnu"

%struct.Bdc_Man_t_ = type { ptr, i32, i32, i32, i32, ptr, i32, i32, i32, ptr, ptr, i32, ptr, ptr, ptr, ptr, ptr, ptr, ptr, %struct.Bdc_Isf_t_, ptr, %struct.Bdc_Isf_t_, ptr, %struct.Bdc_Isf_t_, ptr, %struct.Bdc_Isf_t_, ptr, i32, i32, i32, i32, i32, i32, i32, i64, i64, i64, i64, i64 }
%struct.Bdc_Isf_t_ = type { i32, i32, ptr, ptr }
%struct.Bdc_Par_t_ = type { i32, i32, i32 }
%struct.timespec = type { i64, i64 }

; Function Attrs: inlinehint nounwind uwtable
define internal i32 @Kit_TruthWordNum(i32 noundef %0) #3 {
  %2 = alloca i32, align 4
  store i32 %0, ptr %2, align 4, !tbaa !28
  %3 = load i32, ptr %2, align 4, !tbaa !28
  %4 = icmp sle i32 %3, 5
  br i1 %4, label %5, label %6

5:                                                ; preds = %1
  br label %10

6:                                                ; preds = %1
  %7 = load i32, ptr %2, align 4, !tbaa !28
  %8 = sub nsw i32 %7, 5
  %9 = shl i32 1, %8
  br label %10

10:                                               ; preds = %6, %5
  %11 = phi i32 [ 1, %5 ], [ %9, %6 ]
  ret i32 %11
}

; Function Attrs: inlinehint nounwind uwtable
define internal void @Kit_TruthCopy(ptr noundef %0, ptr noundef %1, i32 noundef %2) #3 {
  %4 = alloca ptr, align 8
  %5 = alloca ptr, align 8
  %6 = alloca i32, align 4
  %7 = alloca i32, align 4
  store ptr %0, ptr %4, align 8, !tbaa !34
  store ptr %1, ptr %5, align 8, !tbaa !34
  store i32 %2, ptr %6, align 4, !tbaa !28
  call void @llvm.lifetime.start.p0(i64 4, ptr %7) #7
  %8 = load i32, ptr %6, align 4, !tbaa !28
  %9 = call i32 @Kit_TruthWordNum(i32 noundef %8)
  %10 = sub nsw i32 %9, 1
  store i32 %10, ptr %7, align 4, !tbaa !28
  br label %11

11:                                               ; preds = %24, %3
  %12 = load i32, ptr %7, align 4, !tbaa !28
  %13 = icmp sge i32 %12, 0
  br i1 %13, label %14, label %27

14:                                               ; preds = %11
  %15 = load ptr, ptr %5, align 8, !tbaa !34
  %16 = load i32, ptr %7, align 4, !tbaa !28
  %17 = sext i32 %16 to i64
  %18 = getelementptr inbounds i32, ptr %15, i64 %17
  %19 = load i32, ptr %18, align 4, !tbaa !28
  %20 = load ptr, ptr %4, align 8, !tbaa !34
  %21 = load i32, ptr %7, align 4, !tbaa !28
  %22 = sext i32 %21 to i64
  %23 = getelementptr inbounds i32, ptr %20, i64 %22
  store i32 %19, ptr %23, align 4, !tbaa !28
  br label %24

24:                                               ; preds = %14
  %25 = load i32, ptr %7, align 4, !tbaa !28
  %26 = add nsw i32 %25, -1
  store i32 %26, ptr %7, align 4, !tbaa !28
  br label %11, !llvm.loop !36

27:                                               ; preds = %11
  call void @llvm.lifetime.end.p0(i64 4, ptr %7) #7
  ret void
}

; Function Attrs: inlinehint nounwind uwtable
define internal i32 @Kit_TruthIsDisjoint(ptr noundef %0, ptr noundef %1, i32 noundef %2) #3 {
  %4 = alloca i32, align 4
  %5 = alloca ptr, align 8
  %6 = alloca ptr, align 8
  %7 = alloca i32, align 4
  %8 = alloca i32, align 4
  %9 = alloca i32, align 4
  store ptr %0, ptr %5, align 8, !tbaa !34
  store ptr %1, ptr %6, align 8, !tbaa !34
  store i32 %2, ptr %7, align 4, !tbaa !28
  call void @llvm.lifetime.start.p0(i64 4, ptr %8) #7
  %10 = load i32, ptr %7, align 4, !tbaa !28
  %11 = call i32 @Kit_TruthWordNum(i32 noundef %10)
  %12 = sub nsw i32 %11, 1
  store i32 %12, ptr %8, align 4, !tbaa !28
  br label %13

13:                                               ; preds = %31, %3
  %14 = load i32, ptr %8, align 4, !tbaa !28
  %15 = icmp sge i32 %14, 0
  br i1 %15, label %16, label %34

16:                                               ; preds = %13
  %17 = load ptr, ptr %5, align 8, !tbaa !34
  %18 = load i32, ptr %8, align 4, !tbaa !28
  %19 = sext i32 %18 to i64
  %20 = getelementptr inbounds i32, ptr %17, i64 %19
  %21 = load i32, ptr %20, align 4, !tbaa !28
  %22 = load ptr, ptr %6, align 8, !tbaa !34
  %23 = load i32, ptr %8, align 4, !tbaa !28
  %24 = sext i32 %23 to i64
  %25 = getelementptr inbounds i32, ptr %22, i64 %24
  %26 = load i32, ptr %25, align 4, !tbaa !28
  %27 = and i32 %21, %26
  %28 = icmp ne i32 %27, 0
  br i1 %28, label %29, label %30

29:                                               ; preds = %16
  store i32 0, ptr %4, align 4
  store i32 1, ptr %9, align 4
  br label %35

30:                                               ; preds = %16
  br label %31

31:                                               ; preds = %30
  %32 = load i32, ptr %8, align 4, !tbaa !28
  %33 = add nsw i32 %32, -1
  store i32 %33, ptr %8, align 4, !tbaa !28
  br label %13, !llvm.loop !35

34:                                               ; preds = %13
  store i32 1, ptr %4, align 4
  store i32 1, ptr %9, align 4
  br label %35

35:                                               ; preds = %34, %29
  call void @llvm.lifetime.end.p0(i64 4, ptr %8) #7
  %36 = load i32, ptr %4, align 4
  ret i32 %36
}

; Function Attrs: inlinehint nounwind uwtable
define internal i64 @Abc_Clock() #3 {
  %1 = alloca i64, align 8
  %2 = alloca %struct.timespec, align 8
  %3 = alloca i32, align 4
  %4 = alloca i64, align 8
  call void @llvm.lifetime.start.p0(i64 16, ptr %2) #7
  %5 = call i32 @clock_gettime(i32 noundef 1, ptr noundef %2) #7
  %6 = icmp slt i32 %5, 0
  br i1 %6, label %7, label %8

7:                                                ; preds = %0
  store i64 -1, ptr %1, align 8
  store i32 1, ptr %3, align 4
  br label %19

8:                                                ; preds = %0
  call void @llvm.lifetime.start.p0(i64 8, ptr %4) #7
  %9 = getelementptr inbounds nuw %struct.timespec, ptr %2, i32 0, i32 0
  %10 = load i64, ptr %9, align 8, !tbaa !88
  %11 = mul nsw i64 %10, 1000000
  store i64 %11, ptr %4, align 8, !tbaa !10
  %12 = getelementptr inbounds nuw %struct.timespec, ptr %2, i32 0, i32 1
  %13 = load i64, ptr %12, align 8, !tbaa !90
  %14 = mul nsw i64 %13, 1000000
  %15 = sdiv i64 %14, 1000000000
  %16 = load i64, ptr %4, align 8, !tbaa !10
  %17 = add nsw i64 %16, %15
  store i64 %17, ptr %4, align 8, !tbaa !10
  %18 = load i64, ptr %4, align 8, !tbaa !10
  store i64 %18, ptr %1, align 8
  store i32 1, ptr %3, align 4
  call void @llvm.lifetime.end.p0(i64 8, ptr %4) #7
  br label %19

19:                                               ; preds = %8, %7
  call void @llvm.lifetime.end.p0(i64 16, ptr %2) #7
  %20 = load i64, ptr %1, align 8
  ret i64 %20
}

; Function Attrs: nounwind uwtable
define void @Bdc_SuppMinimize2(ptr noundef %0, ptr noundef %1) #0 {
  %3 = alloca ptr, align 8
  %4 = alloca ptr, align 8
  %5 = alloca i32, align 4
  %6 = alloca i64, align 8
  store ptr %0, ptr %3, align 8, !tbaa !3
  store ptr %1, ptr %4, align 8, !tbaa !8
  call void @llvm.lifetime.start.p0(i64 4, ptr %5) #7
  call void @llvm.lifetime.start.p0(i64 8, ptr %6) #7
  store i64 0, ptr %6, align 8, !tbaa !10
  %7 = load ptr, ptr %3, align 8, !tbaa !3
  %8 = getelementptr inbounds nuw %struct.Bdc_Man_t_, ptr %7, i32 0, i32 0
  %9 = load ptr, ptr %8, align 8, !tbaa !12
  %10 = getelementptr inbounds nuw %struct.Bdc_Par_t_, ptr %9, i32 0, i32 1
  %11 = load i32, ptr %10, align 4, !tbaa !22
  %12 = icmp ne i32 %11, 0
  br i1 %12, label %13, label %15

13:                                               ; preds = %2
  %14 = call i64 @Abc_Clock()
  store i64 %14, ptr %6, align 8, !tbaa !10
  br label %15

15:                                               ; preds = %13, %2
  %16 = load ptr, ptr %4, align 8, !tbaa !8
  %17 = getelementptr inbounds nuw %struct.Bdc_Isf_t_, ptr %16, i32 0, i32 2
  %18 = load ptr, ptr %17, align 8, !tbaa !24
  %19 = load ptr, ptr %3, align 8, !tbaa !3
  %20 = getelementptr inbounds nuw %struct.Bdc_Man_t_, ptr %19, i32 0, i32 1
  %21 = load i32, ptr %20, align 8, !tbaa !25
  %22 = call i32 @Kit_TruthSupport(ptr noundef %18, i32 noundef %21)
  %23 = load ptr, ptr %4, align 8, !tbaa !8
  %24 = getelementptr inbounds nuw %struct.Bdc_Isf_t_, ptr %23, i32 0, i32 3
  %25 = load ptr, ptr %24, align 8, !tbaa !26
  %26 = load ptr, ptr %3, align 8, !tbaa !3
  %27 = getelementptr inbounds nuw %struct.Bdc_Man_t_, ptr %26, i32 0, i32 1
  %28 = load i32, ptr %27, align 8, !tbaa !25
  %29 = call i32 @Kit_TruthSupport(ptr noundef %25, i32 noundef %28)
  %30 = or i32 %22, %29
  %31 = load ptr, ptr %4, align 8, !tbaa !8
  %32 = getelementptr inbounds nuw %struct.Bdc_Isf_t_, ptr %31, i32 0, i32 0
  store i32 %30, ptr %32, align 8, !tbaa !27
  store i32 0, ptr %5, align 4, !tbaa !28
  br label %33

33:                                               ; preds = %107, %15
  %34 = load i32, ptr %5, align 4, !tbaa !28
  %35 = load ptr, ptr %3, align 8, !tbaa !3
  %36 = getelementptr inbounds nuw %struct.Bdc_Man_t_, ptr %35, i32 0, i32 1
  %37 = load i32, ptr %36, align 8, !tbaa !25
  %38 = icmp slt i32 %34, %37
  br i1 %38, label %39, label %110

39:                                               ; preds = %33
  %40 = load ptr, ptr %4, align 8, !tbaa !8
  %41 = getelementptr inbounds nuw %struct.Bdc_Isf_t_, ptr %40, i32 0, i32 0
  %42 = load i32, ptr %41, align 8, !tbaa !27
  %43 = load i32, ptr %5, align 4, !tbaa !28
  %44 = shl i32 1, %43
  %45 = and i32 %42, %44
  %46 = icmp eq i32 %45, 0
  br i1 %46, label %47, label %48

47:                                               ; preds = %39
  br label %107

48:                                               ; preds = %39
  %49 = load ptr, ptr %3, align 8, !tbaa !3
  %50 = getelementptr inbounds nuw %struct.Bdc_Man_t_, ptr %49, i32 0, i32 14
  %51 = load ptr, ptr %50, align 8, !tbaa !29
  %52 = load ptr, ptr %4, align 8, !tbaa !8
  %53 = getelementptr inbounds nuw %struct.Bdc_Isf_t_, ptr %52, i32 0, i32 2
  %54 = load ptr, ptr %53, align 8, !tbaa !24
  %55 = load ptr, ptr %3, align 8, !tbaa !3
  %56 = getelementptr inbounds nuw %struct.Bdc_Man_t_, ptr %55, i32 0, i32 1
  %57 = load i32, ptr %56, align 8, !tbaa !25
  %58 = load i32, ptr %5, align 4, !tbaa !28
  call void @Kit_TruthExistNew(ptr noundef %51, ptr noundef %54, i32 noundef %57, i32 noundef %58)
  %59 = load ptr, ptr %3, align 8, !tbaa !3
  %60 = getelementptr inbounds nuw %struct.Bdc_Man_t_, ptr %59, i32 0, i32 15
  %61 = load ptr, ptr %60, align 8, !tbaa !30
  %62 = load ptr, ptr %4, align 8, !tbaa !8
  %63 = getelementptr inbounds nuw %struct.Bdc_Isf_t_, ptr %62, i32 0, i32 3
  %64 = load ptr, ptr %63, align 8, !tbaa !26
  %65 = load ptr, ptr %3, align 8, !tbaa !3
  %66 = getelementptr inbounds nuw %struct.Bdc_Man_t_, ptr %65, i32 0, i32 1
  %67 = load i32, ptr %66, align 8, !tbaa !25
  %68 = load i32, ptr %5, align 4, !tbaa !28
  call void @Kit_TruthExistNew(ptr noundef %61, ptr noundef %64, i32 noundef %67, i32 noundef %68)
  %69 = load ptr, ptr %3, align 8, !tbaa !3
  %70 = getelementptr inbounds nuw %struct.Bdc_Man_t_, ptr %69, i32 0, i32 14
  %71 = load ptr, ptr %70, align 8, !tbaa !29
  %72 = load ptr, ptr %3, align 8, !tbaa !3
  %73 = getelementptr inbounds nuw %struct.Bdc_Man_t_, ptr %72, i32 0, i32 15
  %74 = load ptr, ptr %73, align 8, !tbaa !30
  %75 = load ptr, ptr %3, align 8, !tbaa !3
  %76 = getelementptr inbounds nuw %struct.Bdc_Man_t_, ptr %75, i32 0, i32 1
  %77 = load i32, ptr %76, align 8, !tbaa !25
  %78 = call i32 @Kit_TruthIsDisjoint(ptr noundef %71, ptr noundef %74, i32 noundef %77)
  %79 = icmp ne i32 %78, 0
  br i1 %79, label %81, label %80

80:                                               ; preds = %48
  br label %107

81:                                               ; preds = %48
  %82 = load ptr, ptr %4, align 8, !tbaa !8
  %83 = getelementptr inbounds nuw %struct.Bdc_Isf_t_, ptr %82, i32 0, i32 2
  %84 = load ptr, ptr %83, align 8, !tbaa !24
  %85 = load ptr, ptr %3, align 8, !tbaa !3
  %86 = getelementptr inbounds nuw %struct.Bdc_Man_t_, ptr %85, i32 0, i32 14
  %87 = load ptr, ptr %86, align 8, !tbaa !29
  %88 = load ptr, ptr %3, align 8, !tbaa !3
  %89 = getelementptr inbounds nuw %struct.Bdc_Man_t_, ptr %88, i32 0, i32 1
  %90 = load i32, ptr %89, align 8, !tbaa !25
  call void @Kit_TruthCopy(ptr noundef %84, ptr noundef %87, i32 noundef %90)
  %91 = load ptr, ptr %4, align 8, !tbaa !8
  %92 = getelementptr inbounds nuw %struct.Bdc_Isf_t_, ptr %91, i32 0, i32 3
  %93 = load ptr, ptr %92, align 8, !tbaa !26
  %94 = load ptr, ptr %3, align 8, !tbaa !3
  %95 = getelementptr inbounds nuw %struct.Bdc_Man_t_, ptr %94, i32 0, i32 15
  %96 = load ptr, ptr %95, align 8, !tbaa !30
  %97 = load ptr, ptr %3, align 8, !tbaa !3
  %98 = getelementptr inbounds nuw %struct.Bdc_Man_t_, ptr %97, i32 0, i32 1
  %99 = load i32, ptr %98, align 8, !tbaa !25
  call void @Kit_TruthCopy(ptr noundef %93, ptr noundef %96, i32 noundef %99)
  %100 = load i32, ptr %5, align 4, !tbaa !28
  %101 = shl i32 1, %100
  %102 = xor i32 %101, -1
  %103 = load ptr, ptr %4, align 8, !tbaa !8
  %104 = getelementptr inbounds nuw %struct.Bdc_Isf_t_, ptr %103, i32 0, i32 0
  %105 = load i32, ptr %104, align 8, !tbaa !27
  %106 = and i32 %105, %102
  store i32 %106, ptr %104, align 8, !tbaa !27
  br label %107

107:                                              ; preds = %81, %80, %47
  %108 = load i32, ptr %5, align 4, !tbaa !28
  %109 = add nsw i32 %108, 1
  store i32 %109, ptr %5, align 4, !tbaa !28
  br label %33, !llvm.loop !31

110:                                              ; preds = %33
  %111 = load ptr, ptr %3, align 8, !tbaa !3
  %112 = getelementptr inbounds nuw %struct.Bdc_Man_t_, ptr %111, i32 0, i32 0
  %113 = load ptr, ptr %112, align 8, !tbaa !12
  %114 = getelementptr inbounds nuw %struct.Bdc_Par_t_, ptr %113, i32 0, i32 1
  %115 = load i32, ptr %114, align 4, !tbaa !22
  %116 = icmp ne i32 %115, 0
  br i1 %116, label %117, label %125

117:                                              ; preds = %110
  %118 = call i64 @Abc_Clock()
  %119 = load i64, ptr %6, align 8, !tbaa !10
  %120 = sub nsw i64 %118, %119
  %121 = load ptr, ptr %3, align 8, !tbaa !3
  %122 = getelementptr inbounds nuw %struct.Bdc_Man_t_, ptr %121, i32 0, i32 37
  %123 = load i64, ptr %122, align 8, !tbaa !33
  %124 = add nsw i64 %123, %120
  store i64 %124, ptr %122, align 8, !tbaa !33
  br label %125

125:                                              ; preds = %117, %110
  call void @llvm.lifetime.end.p0(i64 8, ptr %6) #7
  call void @llvm.lifetime.end.p0(i64 4, ptr %5) #7
  ret void
}