; Function Attrs: nounwind uwtable
define void @Bdc_SuppMinimize2(ptr noundef captures(none) %0, ptr noundef captures(none) initializes((0, 4)) %1) local_unnamed_addr #0 {
  %3 = alloca %struct.timespec, align 8
  %4 = alloca %struct.timespec, align 8
  %5 = load ptr, ptr %0, align 8, !tbaa !3
  %6 = getelementptr inbounds nuw i8, ptr %5, i64 4
  %7 = load i32, ptr %6, align 4, !tbaa !18
  %.not = icmp eq i32 %7, 0
  br i1 %.not, label %15, label %8

8:                                                ; preds = %2
  call void @llvm.lifetime.start.p0(i64 16, ptr nonnull %4) #7
  %9 = call i32 @clock_gettime(i32 noundef 1, ptr noundef nonnull %4) #7
  %10 = icmp slt i32 %9, 0
  br i1 %10, label %Abc_Clock.exit, label %11

11:                                               ; preds = %8
  %12 = load i64, ptr %4, align 8, !tbaa !20
  %.neg49 = mul i64 %12, -1000000
  %13 = getelementptr inbounds nuw i8, ptr %4, i64 8
  %14 = load i64, ptr %13, align 8, !tbaa !22
  %.neg = sdiv i64 %14, -1000
  %.neg50 = add i64 %.neg, %.neg49
  br label %Abc_Clock.exit

Abc_Clock.exit:                                   ; preds = %8, %11
  %.0.i.neg = phi i64 [ %.neg50, %11 ], [ 1, %8 ]
  call void @llvm.lifetime.end.p0(i64 16, ptr nonnull %4) #7
  br label %15

15:                                               ; preds = %Abc_Clock.exit, %2
  %.0.neg = phi i64 [ %.0.i.neg, %Abc_Clock.exit ], [ 0, %2 ]
  %16 = getelementptr inbounds nuw i8, ptr %1, i64 8
  %17 = load ptr, ptr %16, align 8, !tbaa !23
  %18 = getelementptr inbounds nuw i8, ptr %0, i64 8
  %19 = load i32, ptr %18, align 8, !tbaa !24
  %20 = call i32 @Kit_TruthSupport(ptr noundef %17, i32 noundef %19) #7
  %21 = getelementptr inbounds nuw i8, ptr %1, i64 16
  %22 = load ptr, ptr %21, align 8, !tbaa !25
  %23 = load i32, ptr %18, align 8, !tbaa !24
  %24 = call i32 @Kit_TruthSupport(ptr noundef %22, i32 noundef %23) #7
  %25 = or i32 %24, %20
  store i32 %25, ptr %1, align 8, !tbaa !26
  %26 = load i32, ptr %18, align 8, !tbaa !24
  %27 = icmp sgt i32 %26, 0
  br i1 %27, label %.lr.ph, label %._crit_edge

.lr.ph:                                           ; preds = %15
  %28 = getelementptr inbounds nuw i8, ptr %0, i64 88
  %29 = getelementptr inbounds nuw i8, ptr %0, i64 96
  br label %30

30:                                               ; preds = %.lr.ph, %Kit_TruthIsDisjoint.exit.thread
  %31 = phi i32 [ %26, %.lr.ph ], [ %76, %Kit_TruthIsDisjoint.exit.thread ]
  %.03251 = phi i32 [ 0, %.lr.ph ], [ %77, %Kit_TruthIsDisjoint.exit.thread ]
  %32 = load i32, ptr %1, align 8, !tbaa !26
  %33 = shl nuw i32 1, %.03251
  %34 = and i32 %32, %33
  %35 = icmp eq i32 %34, 0
  br i1 %35, label %Kit_TruthIsDisjoint.exit.thread, label %36

36:                                               ; preds = %30
  %37 = load ptr, ptr %28, align 8, !tbaa !27
  %38 = load ptr, ptr %16, align 8, !tbaa !23
  call void @Kit_TruthExistNew(ptr noundef %37, ptr noundef %38, i32 noundef %31, i32 noundef %.03251) #7
  %39 = load ptr, ptr %29, align 8, !tbaa !28
  %40 = load ptr, ptr %21, align 8, !tbaa !25
  %41 = load i32, ptr %18, align 8, !tbaa !24
  call void @Kit_TruthExistNew(ptr noundef %39, ptr noundef %40, i32 noundef %41, i32 noundef %.03251) #7
  %42 = load ptr, ptr %28, align 8, !tbaa !27
  %43 = load ptr, ptr %29, align 8, !tbaa !28
  %44 = load i32, ptr %18, align 8, !tbaa !24
  %45 = icmp slt i32 %44, 6
  %46 = add nsw i32 %44, -5
  %47 = shl nuw i32 1, %46
  %spec.select.i = select i1 %45, i32 1, i32 %47
  %48 = zext i32 %spec.select.i to i64
  br label %select.unfold.i

select.unfold.i:                                  ; preds = %51, %36
  %indvars.iv.i = phi i64 [ %48, %36 ], [ %52, %51 ]
  %49 = trunc nuw i64 %indvars.iv.i to i32
  %50 = icmp sgt i32 %49, 0
  br i1 %50, label %51, label %Kit_TruthIsDisjoint.exit

51:                                               ; preds = %select.unfold.i
  %52 = add nsw i64 %indvars.iv.i, -1
  %53 = getelementptr inbounds nuw i32, ptr %42, i64 %52
  %54 = load i32, ptr %53, align 4, !tbaa !29
  %55 = getelementptr inbounds nuw i32, ptr %43, i64 %52
  %56 = load i32, ptr %55, align 4, !tbaa !29
  %57 = and i32 %56, %54
  %.not.i = icmp eq i32 %57, 0
  br i1 %.not.i, label %select.unfold.i, label %Kit_TruthIsDisjoint.exit.thread, !llvm.loop !30

Kit_TruthIsDisjoint.exit:                         ; preds = %select.unfold.i
  %58 = load ptr, ptr %16, align 8, !tbaa !23
  %59 = icmp sgt i32 %spec.select.i, 0
  br i1 %59, label %select.unfold.i37, label %Kit_TruthCopy.exit

select.unfold.i37:                                ; preds = %Kit_TruthIsDisjoint.exit, %select.unfold.i37
  %indvars.iv.i38 = phi i64 [ %indvars.iv.next.i, %select.unfold.i37 ], [ %48, %Kit_TruthIsDisjoint.exit ]
  %indvars.iv.next.i = add nsw i64 %indvars.iv.i38, -1
  %60 = getelementptr inbounds nuw i32, ptr %42, i64 %indvars.iv.next.i
  %61 = load i32, ptr %60, align 4, !tbaa !29
  %62 = getelementptr inbounds nuw i32, ptr %58, i64 %indvars.iv.next.i
  store i32 %61, ptr %62, align 4, !tbaa !29
  %63 = icmp samesign ugt i64 %indvars.iv.i38, 1
  br i1 %63, label %select.unfold.i37, label %Kit_TruthCopy.exit.loopexit, !llvm.loop !32

Kit_TruthCopy.exit.loopexit:                      ; preds = %select.unfold.i37
  %.pre = load i32, ptr %18, align 8, !tbaa !24
  %.pre54 = add nsw i32 %.pre, -5
  %.pre55 = shl nuw i32 1, %.pre54
  br label %Kit_TruthCopy.exit

Kit_TruthCopy.exit:                               ; preds = %Kit_TruthCopy.exit.loopexit, %Kit_TruthIsDisjoint.exit
  %.pre-phi56 = phi i32 [ %.pre55, %Kit_TruthCopy.exit.loopexit ], [ %47, %Kit_TruthIsDisjoint.exit ]
  %64 = phi i32 [ %.pre, %Kit_TruthCopy.exit.loopexit ], [ %44, %Kit_TruthIsDisjoint.exit ]
  %65 = load ptr, ptr %21, align 8, !tbaa !25
  %66 = icmp slt i32 %64, 6
  %spec.select.i39 = select i1 %66, i32 1, i32 %.pre-phi56
  %67 = icmp sgt i32 %spec.select.i39, 0
  br i1 %67, label %select.unfold.preheader.i40, label %Kit_TruthCopy.exit44

select.unfold.preheader.i40:                      ; preds = %Kit_TruthCopy.exit
  %68 = zext nneg i32 %spec.select.i39 to i64
  br label %select.unfold.i41

select.unfold.i41:                                ; preds = %select.unfold.i41, %select.unfold.preheader.i40
  %indvars.iv.i42 = phi i64 [ %68, %select.unfold.preheader.i40 ], [ %indvars.iv.next.i43, %select.unfold.i41 ]
  %indvars.iv.next.i43 = add nsw i64 %indvars.iv.i42, -1
  %69 = getelementptr inbounds nuw i32, ptr %43, i64 %indvars.iv.next.i43
  %70 = load i32, ptr %69, align 4, !tbaa !29
  %71 = getelementptr inbounds nuw i32, ptr %65, i64 %indvars.iv.next.i43
  store i32 %70, ptr %71, align 4, !tbaa !29
  %72 = icmp samesign ugt i64 %indvars.iv.i42, 1
  br i1 %72, label %select.unfold.i41, label %Kit_TruthCopy.exit44.loopexit, !llvm.loop !32

Kit_TruthCopy.exit44.loopexit:                    ; preds = %select.unfold.i41
  %.pre52.pre = load i32, ptr %18, align 8, !tbaa !24
  br label %Kit_TruthCopy.exit44

Kit_TruthCopy.exit44:                             ; preds = %Kit_TruthCopy.exit44.loopexit, %Kit_TruthCopy.exit
  %.pre52 = phi i32 [ %.pre52.pre, %Kit_TruthCopy.exit44.loopexit ], [ %64, %Kit_TruthCopy.exit ]
  %73 = xor i32 %33, -1
  %74 = load i32, ptr %1, align 8, !tbaa !26
  %75 = and i32 %74, %73
  store i32 %75, ptr %1, align 8, !tbaa !26
  br label %Kit_TruthIsDisjoint.exit.thread

Kit_TruthIsDisjoint.exit.thread:                  ; preds = %51, %30, %Kit_TruthCopy.exit44
  %76 = phi i32 [ %31, %30 ], [ %.pre52, %Kit_TruthCopy.exit44 ], [ %44, %51 ]
  %77 = add nuw nsw i32 %.03251, 1
  %78 = icmp slt i32 %77, %76
  br i1 %78, label %30, label %._crit_edge, !llvm.loop !33

._crit_edge:                                      ; preds = %Kit_TruthIsDisjoint.exit.thread, %15
  %79 = load ptr, ptr %0, align 8, !tbaa !3
  %80 = getelementptr inbounds nuw i8, ptr %79, i64 4
  %81 = load i32, ptr %80, align 4, !tbaa !18
  %.not34 = icmp eq i32 %81, 0
  br i1 %.not34, label %96, label %82

82:                                               ; preds = %._crit_edge
  call void @llvm.lifetime.start.p0(i64 16, ptr nonnull %3) #7
  %83 = call i32 @clock_gettime(i32 noundef 1, ptr noundef nonnull %3) #7
  %84 = icmp slt i32 %83, 0
  br i1 %84, label %Abc_Clock.exit46, label %85

85:                                               ; preds = %82
  %86 = load i64, ptr %3, align 8, !tbaa !20
  %87 = mul nsw i64 %86, 1000000
  %88 = getelementptr inbounds nuw i8, ptr %3, i64 8
  %89 = load i64, ptr %88, align 8, !tbaa !22
  %90 = sdiv i64 %89, 1000
  %91 = add nsw i64 %90, %87
  br label %Abc_Clock.exit46

Abc_Clock.exit46:                                 ; preds = %82, %85
  %.0.i45 = phi i64 [ %91, %85 ], [ -1, %82 ]
  call void @llvm.lifetime.end.p0(i64 16, ptr nonnull %3) #7
  %92 = add i64 %.0.i45, %.0.neg
  %93 = getelementptr inbounds nuw i8, ptr %0, i64 312
  %94 = load i64, ptr %93, align 8, !tbaa !34
  %95 = add nsw i64 %92, %94
  store i64 %95, ptr %93, align 8, !tbaa !34
  br label %96

96:                                               ; preds = %Abc_Clock.exit46, %._crit_edge
  ret void
}